target datalayout = "e-m:e-p270:32:32-p271:32:32-p272:64:64-i64:64-i128:128-f80:128-n8:16:32:64-S128"
target triple = "x86_64-pc-linux-gnu"

; Function Attrs: nounwind uwtable
define i32 @Str_MuxRestructure(ptr noundef %0, ptr noundef %1, i32 noundef %2, i32 noundef %3, ptr noundef %4, i32 noundef %5, i32 noundef %6, i32 noundef %7, i32 noundef %8) #0 {
  %10 = alloca i32, align 4
  %11 = alloca ptr, align 8
  %12 = alloca ptr, align 8
  %13 = alloca i32, align 4
  %14 = alloca i32, align 4
  %15 = alloca ptr, align 8
  %16 = alloca i32, align 4
  %17 = alloca i32, align 4
  %18 = alloca i32, align 4
  %19 = alloca i32, align 4
  store ptr %0, ptr %11, align 8, !tbaa !3
  store ptr %1, ptr %12, align 8, !tbaa !8
  store i32 %2, ptr %13, align 4, !tbaa !39
  store i32 %3, ptr %14, align 4, !tbaa !39
  store ptr %4, ptr %15, align 8, !tbaa !61
  store i32 %5, ptr %16, align 4, !tbaa !39
  store i32 %6, ptr %17, align 4, !tbaa !39
  store i32 %7, ptr %18, align 4, !tbaa !39
  store i32 %8, ptr %19, align 4, !tbaa !39
  %20 = load i32, ptr %18, align 4, !tbaa !39
  %21 = icmp ne i32 %20, 0
  br i1 %21, label %22, label %43

22:                                               ; preds = %9
  %23 = load i32, ptr %14, align 4, !tbaa !39
  %24 = icmp slt i32 %23, 2
  br i1 %24, label %25, label %34

25:                                               ; preds = %22
  %26 = load ptr, ptr %11, align 8, !tbaa !3
  %27 = load ptr, ptr %12, align 8, !tbaa !8
  %28 = load i32, ptr %13, align 4, !tbaa !39
  %29 = load i32, ptr %14, align 4, !tbaa !39
  %30 = load ptr, ptr %15, align 8, !tbaa !61
  %31 = load i32, ptr %16, align 4, !tbaa !39
  %32 = load i32, ptr %19, align 4, !tbaa !39
  %33 = call i32 @Str_MuxRestructure1(ptr noundef %26, ptr noundef %27, i32 noundef %28, i32 noundef %29, ptr noundef %30, i32 noundef %31, i32 noundef %32)
  store i32 %33, ptr %10, align 4
  br label %64

34:                                               ; preds = %22
  %35 = load ptr, ptr %11, align 8, !tbaa !3
  %36 = load ptr, ptr %12, align 8, !tbaa !8
  %37 = load i32, ptr %13, align 4, !tbaa !39
  %38 = load i32, ptr %14, align 4, !tbaa !39
  %39 = load ptr, ptr %15, align 8, !tbaa !61
  %40 = load i32, ptr %16, align 4, !tbaa !39
  %41 = load i32, ptr %19, align 4, !tbaa !39
  %42 = call i32 @Str_MuxRestructureArea(ptr noundef %35, ptr noundef %36, i32 noundef %37, i32 noundef %38, ptr noundef %39, i32 noundef %40, i32 noundef %41)
  store i32 %42, ptr %10, align 4
  br label %64

43:                                               ; preds = %9
  %44 = load i32, ptr %17, align 4, !tbaa !39
  %45 = icmp ne i32 %44, 0
  br i1 %45, label %46, label %55

46:                                               ; preds = %43
  %47 = load ptr, ptr %11, align 8, !tbaa !3
  %48 = load ptr, ptr %12, align 8, !tbaa !8
  %49 = load i32, ptr %13, align 4, !tbaa !39
  %50 = load i32, ptr %14, align 4, !tbaa !39
  %51 = load ptr, ptr %15, align 8, !tbaa !61
  %52 = load i32, ptr %16, align 4, !tbaa !39
  %53 = load i32, ptr %19, align 4, !tbaa !39
  %54 = call i32 @Str_MuxRestructure2(ptr noundef %47, ptr noundef %48, i32 noundef %49, i32 noundef %50, ptr noundef %51, i32 noundef %52, i32 noundef %53)
  store i32 %54, ptr %10, align 4
  br label %64

55:                                               ; preds = %43
  %56 = load ptr, ptr %11, align 8, !tbaa !3
  %57 = load ptr, ptr %12, align 8, !tbaa !8
  %58 = load i32, ptr %13, align 4, !tbaa !39
  %59 = load i32, ptr %14, align 4, !tbaa !39
  %60 = load ptr, ptr %15, align 8, !tbaa !61
  %61 = load i32, ptr %16, align 4, !tbaa !39
  %62 = load i32, ptr %19, align 4, !tbaa !39
  %63 = call i32 @Str_MuxRestructure1(ptr noundef %56, ptr noundef %57, i32 noundef %58, i32 noundef %59, ptr noundef %60, i32 noundef %61, i32 noundef %62)
  store i32 %63, ptr %10, align 4
  br label %64

64:                                               ; preds = %55, %46, %34, %25
  %65 = load i32, ptr %10, align 4
  ret i32 %65
}