; Function Attrs: nounwind uwtable
define i32 @Str_MuxRestructure(ptr noundef %0, ptr noundef %1, i32 noundef %2, i32 noundef %3, ptr noundef %4, i32 noundef %5, i32 noundef %6, i32 noundef %7, i32 noundef %8) local_unnamed_addr #0 {
  %.not = icmp eq i32 %7, 0
  br i1 %.not, label %16, label %10

10:                                               ; preds = %9
  %11 = icmp slt i32 %3, 2
  br i1 %11, label %12, label %14

12:                                               ; preds = %10
  %13 = tail call i32 @Str_MuxRestructure1(ptr noundef %0, ptr noundef %1, i32 noundef %2, i32 noundef %3, ptr noundef %4, i32 noundef %5, i32 noundef %8)
  br label %21

14:                                               ; preds = %10
  %15 = tail call i32 @Str_MuxRestructureArea(ptr noundef %0, ptr noundef %1, i32 noundef %2, i32 noundef %3, ptr noundef %4, i32 noundef %5, i32 noundef %8)
  br label %21

16:                                               ; preds = %9
  %.not32 = icmp eq i32 %6, 0
  br i1 %.not32, label %19, label %17

17:                                               ; preds = %16
  %18 = tail call i32 @Str_MuxRestructure2(ptr noundef %0, ptr noundef %1, i32 noundef %2, i32 noundef %3, ptr noundef %4, i32 noundef %5, i32 noundef %8)
  br label %21

19:                                               ; preds = %16
  %20 = tail call i32 @Str_MuxRestructure1(ptr noundef %0, ptr noundef %1, i32 noundef %2, i32 noundef %3, ptr noundef %4, i32 noundef %5, i32 noundef %8)
  br label %21

21:                                               ; preds = %19, %17, %14, %12
  %.0 = phi i32 [ %13, %12 ], [ %15, %14 ], [ %18, %17 ], [ %20, %19 ]
  ret i32 %.0
}